target datalayout = "e-m:e-p270:32:32-p271:32:32-p272:64:64-i64:64-i128:128-f80:128-n8:16:32:64-S128"
target triple = "x86_64-pc-linux-gnu"

%struct.FT_BBox_ = type { i64, i64, i64, i64 }
%struct.CFF_FontRecDictRec_ = type { i32, i32, i32, i32, i32, i32, i8, i64, i64, i64, i32, i32, %struct.FT_Matrix_, i8, i64, %struct.FT_Vector_, i64, %struct.FT_BBox_, i64, i64, i64, i64, i64, i64, i64, i32, i32, i32, i64, i64, i64, i64, i64, i64, i64, i64, i32, i16, i16, i64, i32 }
%struct.FT_Matrix_ = type { i64, i64, i64, i64 }
%struct.FT_Vector_ = type { i64, i64 }
%struct.CFF_ParserRec_ = type { ptr, ptr, ptr, ptr, ptr, ptr, i32, i32, ptr, i16, i16 }

; Function Attrs: nounwind uwtable
define internal i32 @cff_parse_maxstack(ptr noundef %0) #0 {
  %2 = alloca ptr, align 8
  %3 = alloca ptr, align 8
  %4 = alloca ptr, align 8
  %5 = alloca i32, align 4
  store ptr %0, ptr %2, align 8
  %6 = load ptr, ptr %2, align 8
  %7 = getelementptr inbounds %struct.CFF_ParserRec_, ptr %6, i32 0, i32 8
  %8 = load ptr, ptr %7, align 8
  store ptr %8, ptr %3, align 8
  %9 = load ptr, ptr %2, align 8
  %10 = getelementptr inbounds %struct.CFF_ParserRec_, ptr %9, i32 0, i32 4
  %11 = load ptr, ptr %10, align 8
  store ptr %11, ptr %4, align 8
  store i32 0, ptr %5, align 4
  %12 = load ptr, ptr %3, align 8
  %13 = icmp ne ptr %12, null
  br i1 %13, label %15, label %14

14:                                               ; preds = %1
  store i32 3, ptr %5, align 4
  br label %41

15:                                               ; preds = %1
  %16 = load ptr, ptr %2, align 8
  %17 = load ptr, ptr %4, align 8
  %18 = getelementptr inbounds ptr, ptr %17, i32 1
  store ptr %18, ptr %4, align 8
  %19 = call i64 @cff_parse_num(ptr noundef %16, ptr noundef %17)
  %20 = trunc i64 %19 to i32
  %21 = load ptr, ptr %3, align 8
  %22 = getelementptr inbounds %struct.CFF_FontRecDictRec_, ptr %21, i32 0, i32 40
  store i32 %20, ptr %22, align 8
  %23 = load ptr, ptr %3, align 8
  %24 = getelementptr inbounds %struct.CFF_FontRecDictRec_, ptr %23, i32 0, i32 40
  %25 = load i32, ptr %24, align 8
  %26 = icmp ugt i32 %25, 513
  br i1 %26, label %27, label %30

27:                                               ; preds = %15
  %28 = load ptr, ptr %3, align 8
  %29 = getelementptr inbounds %struct.CFF_FontRecDictRec_, ptr %28, i32 0, i32 40
  store i32 513, ptr %29, align 8
  br label %30

30:                                               ; preds = %27, %15
  %31 = load ptr, ptr %3, align 8
  %32 = getelementptr inbounds %struct.CFF_FontRecDictRec_, ptr %31, i32 0, i32 40
  %33 = load i32, ptr %32, align 8
  %34 = icmp ult i32 %33, 513
  br i1 %34, label %35, label %38

35:                                               ; preds = %30
  %36 = load ptr, ptr %3, align 8
  %37 = getelementptr inbounds %struct.CFF_FontRecDictRec_, ptr %36, i32 0, i32 40
  store i32 513, ptr %37, align 8
  br label %38

38:                                               ; preds = %35, %30
  br label %39

39:                                               ; preds = %38
  br label %40

40:                                               ; preds = %39
  br label %41

41:                                               ; preds = %40, %14
  %42 = load i32, ptr %5, align 4
  ret i32 %42
}