; Function Attrs: nounwind uwtable
define internal range(i32 0, 4) i32 @cff_parse_maxstack(ptr nocapture noundef readonly %0) #4 {
  %2 = getelementptr inbounds i8, ptr %0, i64 56
  %3 = load ptr, ptr %2, align 8
  %.not = icmp eq ptr %3, null
  br i1 %.not, label %9, label %4

4:                                                ; preds = %1
  %5 = getelementptr inbounds i8, ptr %0, i64 32
  %6 = load ptr, ptr %5, align 8
  %.val = load ptr, ptr %6, align 8
  %7 = tail call fastcc i64 @cff_parse_num(ptr noundef nonnull %0, ptr %.val)
  %8 = getelementptr inbounds i8, ptr %3, i64 320
  store i32 513, ptr %8, align 8
  br label %9

9:                                                ; preds = %4, %1
  %.0 = phi i32 [ 3, %1 ], [ 0, %4 ]
  ret i32 %.0
}